target datalayout = "e-m:e-p270:32:32-p271:32:32-p272:64:64-i64:64-i128:128-f80:128-n8:16:32:64-S128"
target triple = "x86_64-pc-linux-gnu"

%"class.(anonymous namespace)::ShadowStackGCLoweringImpl" = type { ptr, ptr, ptr, %"class.std::vector" }
%"class.std::vector" = type { %"struct.std::_Vector_base" }
%"struct.std::_Vector_base" = type { %"struct.std::_Vector_base<std::pair<llvm::CallInst *, llvm::AllocaInst *>, std::allocator<std::pair<llvm::CallInst *, llvm::AllocaInst *>>>::_Vector_impl" }
%"struct.std::_Vector_base<std::pair<llvm::CallInst *, llvm::AllocaInst *>, std::allocator<std::pair<llvm::CallInst *, llvm::AllocaInst *>>>::_Vector_impl" = type { %"struct.std::_Vector_base<std::pair<llvm::CallInst *, llvm::AllocaInst *>, std::allocator<std::pair<llvm::CallInst *, llvm::AllocaInst *>>>::_Vector_impl_data" }
%"struct.std::_Vector_base<std::pair<llvm::CallInst *, llvm::AllocaInst *>, std::allocator<std::pair<llvm::CallInst *, llvm::AllocaInst *>>>::_Vector_impl_data" = type { ptr, ptr, ptr }
%"class.(anonymous namespace)::ShadowStackGCLowering" = type { %"class.llvm::FunctionPass.base", %"class.(anonymous namespace)::ShadowStackGCLoweringImpl" }
%"class.llvm::FunctionPass.base" = type { %"class.llvm::Pass.base" }
%"class.llvm::Pass.base" = type <{ ptr, ptr, ptr, i32 }>

; Function Attrs: mustprogress nounwind uwtable
define linkonce_odr hidden void @_ZNSt15__new_allocatorISt4pairIPN4llvm8CallInstEPNS1_10AllocaInstEEED2Ev(ptr noundef nonnull align 1 dereferenceable(1) %0) unnamed_addr #0 comdat align 2 {
  %2 = alloca ptr, align 8
  store ptr %0, ptr %2, align 8
  ret void
}

; Function Attrs: mustprogress nounwind uwtable
define linkonce_odr hidden void @_ZNSt15__new_allocatorISt4pairIPN4llvm8CallInstEPNS1_10AllocaInstEEE10deallocateEPS6_m(ptr noundef nonnull align 1 dereferenceable(1) %0, ptr noundef %1, i64 noundef %2) #0 comdat align 2 {
  %4 = alloca ptr, align 8
  %5 = alloca ptr, align 8
  %6 = alloca i64, align 8
  store ptr %0, ptr %4, align 8
  store ptr %1, ptr %5, align 8
  store i64 %2, ptr %6, align 8
  %7 = load ptr, ptr %5, align 8
  %8 = load i64, ptr %6, align 8
  %9 = mul i64 %8, 16
  call void @_ZdlPvm(ptr noundef %7, i64 noundef %9) #13
  ret void
}

; Function Attrs: mustprogress nounwind uwtable
define linkonce_odr hidden void @_ZNSaISt4pairIPN4llvm8CallInstEPNS0_10AllocaInstEEED2Ev(ptr noundef nonnull align 1 dereferenceable(1) %0) unnamed_addr #0 comdat align 2 {
  %2 = alloca ptr, align 8
  store ptr %0, ptr %2, align 8
  %3 = load ptr, ptr %2, align 8
  call void @_ZNSt15__new_allocatorISt4pairIPN4llvm8CallInstEPNS1_10AllocaInstEEED2Ev(ptr noundef nonnull align 1 dereferenceable(1) %3) #11
  ret void
}

; Function Attrs: mustprogress nounwind uwtable
define linkonce_odr hidden void @_ZNSt16allocator_traitsISaISt4pairIPN4llvm8CallInstEPNS1_10AllocaInstEEEE10deallocateERS7_PS6_m(ptr noundef nonnull align 1 dereferenceable(1) %0, ptr noundef %1, i64 noundef %2) #0 comdat align 2 {
  %4 = alloca ptr, align 8
  %5 = alloca ptr, align 8
  %6 = alloca i64, align 8
  store ptr %0, ptr %4, align 8
  store ptr %1, ptr %5, align 8
  store i64 %2, ptr %6, align 8
  %7 = load ptr, ptr %4, align 8
  %8 = load ptr, ptr %5, align 8
  %9 = load i64, ptr %6, align 8
  call void @_ZNSt15__new_allocatorISt4pairIPN4llvm8CallInstEPNS1_10AllocaInstEEE10deallocateEPS6_m(ptr noundef nonnull align 1 dereferenceable(1) %7, ptr noundef %8, i64 noundef %9)
  ret void
}

; Function Attrs: mustprogress nounwind uwtable
define linkonce_odr hidden void @_ZNSt12_Destroy_auxILb1EE9__destroyIPSt4pairIPN4llvm8CallInstEPNS3_10AllocaInstEEEEvT_SA_(ptr noundef %0, ptr noundef %1) #0 comdat align 2 {
  %3 = alloca ptr, align 8
  %4 = alloca ptr, align 8
  store ptr %0, ptr %3, align 8
  store ptr %1, ptr %4, align 8
  ret void
}

; Function Attrs: mustprogress nounwind uwtable
define linkonce_odr hidden void @_ZNSt12_Vector_baseISt4pairIPN4llvm8CallInstEPNS1_10AllocaInstEESaIS6_EE12_Vector_implD2Ev(ptr noundef nonnull align 8 dereferenceable(24) %0) unnamed_addr #0 comdat align 2 {
  %2 = alloca ptr, align 8
  store ptr %0, ptr %2, align 8
  %3 = load ptr, ptr %2, align 8
  call void @_ZNSaISt4pairIPN4llvm8CallInstEPNS0_10AllocaInstEEED2Ev(ptr noundef nonnull align 1 dereferenceable(1) %3) #11
  ret void
}

; Function Attrs: mustprogress nounwind uwtable
define linkonce_odr hidden void @_ZNSt12_Vector_baseISt4pairIPN4llvm8CallInstEPNS1_10AllocaInstEESaIS6_EE13_M_deallocateEPS6_m(ptr noundef nonnull align 8 dereferenceable(24) %0, ptr noundef %1, i64 noundef %2) #0 comdat align 2 {
  %4 = alloca ptr, align 8
  %5 = alloca ptr, align 8
  %6 = alloca i64, align 8
  store ptr %0, ptr %4, align 8
  store ptr %1, ptr %5, align 8
  store i64 %2, ptr %6, align 8
  %7 = load ptr, ptr %4, align 8
  %8 = load ptr, ptr %5, align 8
  %9 = icmp ne ptr %8, null
  br i1 %9, label %10, label %14

10:                                               ; preds = %3
  %11 = getelementptr inbounds nuw %"struct.std::_Vector_base", ptr %7, i32 0, i32 0
  %12 = load ptr, ptr %5, align 8
  %13 = load i64, ptr %6, align 8
  call void @_ZNSt16allocator_traitsISaISt4pairIPN4llvm8CallInstEPNS1_10AllocaInstEEEE10deallocateERS7_PS6_m(ptr noundef nonnull align 1 dereferenceable(1) %11, ptr noundef %12, i64 noundef %13)
  br label %14

14:                                               ; preds = %10, %3
  ret void
}

; Function Attrs: mustprogress nounwind uwtable
define linkonce_odr void @_ZSt8_DestroyIPSt4pairIPN4llvm8CallInstEPNS1_10AllocaInstEEEvT_S8_(ptr noundef %0, ptr noundef %1) #0 comdat {
  %3 = alloca ptr, align 8
  %4 = alloca ptr, align 8
  store ptr %0, ptr %3, align 8
  store ptr %1, ptr %4, align 8
  %5 = load ptr, ptr %3, align 8
  %6 = load ptr, ptr %4, align 8
  call void @_ZNSt12_Destroy_auxILb1EE9__destroyIPSt4pairIPN4llvm8CallInstEPNS3_10AllocaInstEEEEvT_SA_(ptr noundef %5, ptr noundef %6)
  ret void
}

; Function Attrs: mustprogress nounwind uwtable
define linkonce_odr hidden void @_ZNSt12_Vector_baseISt4pairIPN4llvm8CallInstEPNS1_10AllocaInstEESaIS6_EED2Ev(ptr noundef nonnull align 8 dereferenceable(24) %0) unnamed_addr #0 comdat align 2 {
  %2 = alloca ptr, align 8
  store ptr %0, ptr %2, align 8
  %3 = load ptr, ptr %2, align 8
  %4 = getelementptr inbounds nuw %"struct.std::_Vector_base", ptr %3, i32 0, i32 0
  %5 = getelementptr inbounds nuw %"struct.std::_Vector_base<std::pair<llvm::CallInst *, llvm::AllocaInst *>, std::allocator<std::pair<llvm::CallInst *, llvm::AllocaInst *>>>::_Vector_impl_data", ptr %4, i32 0, i32 0
  %6 = load ptr, ptr %5, align 8
  %7 = getelementptr inbounds nuw %"struct.std::_Vector_base", ptr %3, i32 0, i32 0
  %8 = getelementptr inbounds nuw %"struct.std::_Vector_base<std::pair<llvm::CallInst *, llvm::AllocaInst *>, std::allocator<std::pair<llvm::CallInst *, llvm::AllocaInst *>>>::_Vector_impl_data", ptr %7, i32 0, i32 2
  %9 = load ptr, ptr %8, align 8
  %10 = getelementptr inbounds nuw %"struct.std::_Vector_base", ptr %3, i32 0, i32 0
  %11 = getelementptr inbounds nuw %"struct.std::_Vector_base<std::pair<llvm::CallInst *, llvm::AllocaInst *>, std::allocator<std::pair<llvm::CallInst *, llvm::AllocaInst *>>>::_Vector_impl_data", ptr %10, i32 0, i32 0
  %12 = load ptr, ptr %11, align 8
  %13 = ptrtoint ptr %9 to i64
  %14 = ptrtoint ptr %12 to i64
  %15 = sub i64 %13, %14
  %16 = sdiv exact i64 %15, 16
  call void @_ZNSt12_Vector_baseISt4pairIPN4llvm8CallInstEPNS1_10AllocaInstEESaIS6_EE13_M_deallocateEPS6_m(ptr noundef nonnull align 8 dereferenceable(24) %3, ptr noundef %6, i64 noundef %16)
  %17 = getelementptr inbounds nuw %"struct.std::_Vector_base", ptr %3, i32 0, i32 0
  call void @_ZNSt12_Vector_baseISt4pairIPN4llvm8CallInstEPNS1_10AllocaInstEESaIS6_EE12_Vector_implD2Ev(ptr noundef nonnull align 8 dereferenceable(24) %17) #11
  ret void
}

; Function Attrs: mustprogress nounwind uwtable
define linkonce_odr void @_ZSt8_DestroyIPSt4pairIPN4llvm8CallInstEPNS1_10AllocaInstEES6_EvT_S8_RSaIT0_E(ptr noundef %0, ptr noundef %1, ptr noundef nonnull align 1 dereferenceable(1) %2) #0 comdat {
  %4 = alloca ptr, align 8
  %5 = alloca ptr, align 8
  %6 = alloca ptr, align 8
  store ptr %0, ptr %4, align 8
  store ptr %1, ptr %5, align 8
  store ptr %2, ptr %6, align 8
  %7 = load ptr, ptr %4, align 8
  %8 = load ptr, ptr %5, align 8
  call void @_ZSt8_DestroyIPSt4pairIPN4llvm8CallInstEPNS1_10AllocaInstEEEvT_S8_(ptr noundef %7, ptr noundef %8)
  ret void
}

; Function Attrs: mustprogress nounwind uwtable
define linkonce_odr hidden noundef nonnull align 1 dereferenceable(1) ptr @_ZNSt12_Vector_baseISt4pairIPN4llvm8CallInstEPNS1_10AllocaInstEESaIS6_EE19_M_get_Tp_allocatorEv(ptr noundef nonnull align 8 dereferenceable(24) %0) #0 comdat align 2 {
  %2 = alloca ptr, align 8
  store ptr %0, ptr %2, align 8
  %3 = load ptr, ptr %2, align 8
  %4 = getelementptr inbounds nuw %"struct.std::_Vector_base", ptr %3, i32 0, i32 0
  ret ptr %4
}

; Function Attrs: mustprogress nounwind uwtable
define linkonce_odr hidden void @_ZNSt6vectorISt4pairIPN4llvm8CallInstEPNS1_10AllocaInstEESaIS6_EED2Ev(ptr noundef nonnull align 8 dereferenceable(24) %0) unnamed_addr #0 comdat align 2 {
  %2 = alloca ptr, align 8
  store ptr %0, ptr %2, align 8
  %3 = load ptr, ptr %2, align 8
  %4 = getelementptr inbounds nuw %"struct.std::_Vector_base", ptr %3, i32 0, i32 0
  %5 = getelementptr inbounds nuw %"struct.std::_Vector_base<std::pair<llvm::CallInst *, llvm::AllocaInst *>, std::allocator<std::pair<llvm::CallInst *, llvm::AllocaInst *>>>::_Vector_impl_data", ptr %4, i32 0, i32 0
  %6 = load ptr, ptr %5, align 8
  %7 = getelementptr inbounds nuw %"struct.std::_Vector_base", ptr %3, i32 0, i32 0
  %8 = getelementptr inbounds nuw %"struct.std::_Vector_base<std::pair<llvm::CallInst *, llvm::AllocaInst *>, std::allocator<std::pair<llvm::CallInst *, llvm::AllocaInst *>>>::_Vector_impl_data", ptr %7, i32 0, i32 1
  %9 = load ptr, ptr %8, align 8
  %10 = call noundef nonnull align 1 dereferenceable(1) ptr @_ZNSt12_Vector_baseISt4pairIPN4llvm8CallInstEPNS1_10AllocaInstEESaIS6_EE19_M_get_Tp_allocatorEv(ptr noundef nonnull align 8 dereferenceable(24) %3) #11
  call void @_ZSt8_DestroyIPSt4pairIPN4llvm8CallInstEPNS1_10AllocaInstEES6_EvT_S8_RSaIT0_E(ptr noundef %6, ptr noundef %9, ptr noundef nonnull align 1 dereferenceable(1) %10)
  call void @_ZNSt12_Vector_baseISt4pairIPN4llvm8CallInstEPNS1_10AllocaInstEESaIS6_EED2Ev(ptr noundef nonnull align 8 dereferenceable(24) %3) #11
  ret void
}

; Function Attrs: mustprogress nounwind uwtable
define linkonce_odr hidden void @_ZN4llvm12FunctionPassD2Ev(ptr noundef nonnull align 8 dereferenceable(28) %0) unnamed_addr #0 comdat align 2 {
  %2 = alloca ptr, align 8
  store ptr %0, ptr %2, align 8
  %3 = load ptr, ptr %2, align 8
  call void @_ZN4llvm4PassD2Ev(ptr noundef nonnull align 8 dereferenceable(28) %3) #11
  ret void
}

; Function Attrs: mustprogress nounwind uwtable
define internal void @_ZN12_GLOBAL__N_125ShadowStackGCLoweringImplD2Ev(ptr noundef nonnull align 8 dereferenceable(48) %0) unnamed_addr #0 align 2 {
  %2 = alloca ptr, align 8
  store ptr %0, ptr %2, align 8
  %3 = load ptr, ptr %2, align 8
  %4 = getelementptr inbounds nuw %"class.(anonymous namespace)::ShadowStackGCLoweringImpl", ptr %3, i32 0, i32 3
  call void @_ZNSt6vectorISt4pairIPN4llvm8CallInstEPNS1_10AllocaInstEESaIS6_EED2Ev(ptr noundef nonnull align 8 dereferenceable(24) %4) #11
  ret void
}

; Function Attrs: mustprogress nounwind uwtable
define internal void @_ZN12_GLOBAL__N_121ShadowStackGCLoweringD2Ev(ptr noundef nonnull align 8 dereferenceable(80) %0) unnamed_addr #0 align 2 {
  %2 = alloca ptr, align 8
  store ptr %0, ptr %2, align 8
  %3 = load ptr, ptr %2, align 8
  store ptr getelementptr inbounds inrange(-16, 144) ({ [20 x ptr] }, ptr @_ZTVN12_GLOBAL__N_121ShadowStackGCLoweringE, i32 0, i32 0, i32 2), ptr %3, align 8
  %4 = getelementptr inbounds nuw %"class.(anonymous namespace)::ShadowStackGCLowering", ptr %3, i32 0, i32 1
  call void @_ZN12_GLOBAL__N_125ShadowStackGCLoweringImplD2Ev(ptr noundef nonnull align 8 dereferenceable(48) %4) #11
  call void @_ZN4llvm12FunctionPassD2Ev(ptr noundef nonnull align 8 dereferenceable(28) %3) #11
  ret void
}