; Function Attrs: mustprogress nounwind uwtable
define internal void @_ZN12_GLOBAL__N_121ShadowStackGCLoweringD2Ev(ptr noundef nonnull align 8 dereferenceable(80) %0) unnamed_addr #0 align 2 {
  store ptr getelementptr inbounds inrange(-16, 144) (i8, ptr @_ZTVN12_GLOBAL__N_121ShadowStackGCLoweringE, i64 16), ptr %0, align 8
  %2 = getelementptr inbounds i8, ptr %0, i64 56
  %.val = load ptr, ptr %2, align 8
  %.not.i.i.i.i = icmp eq ptr %.val, null
  br i1 %.not.i.i.i.i, label %_ZN12_GLOBAL__N_125ShadowStackGCLoweringImplD2Ev.exit, label %3

3:                                                ; preds = %1
  %4 = getelementptr inbounds i8, ptr %0, i64 72
  %.val1 = load ptr, ptr %4, align 8
  %5 = ptrtoint ptr %.val1 to i64
  %6 = ptrtoint ptr %.val to i64
  %7 = sub i64 %5, %6
  tail call void @_ZdlPvm(ptr noundef nonnull %.val, i64 noundef %7) #14
  br label %_ZN12_GLOBAL__N_125ShadowStackGCLoweringImplD2Ev.exit

_ZN12_GLOBAL__N_125ShadowStackGCLoweringImplD2Ev.exit: ; preds = %1, %3
  tail call void @_ZN4llvm4PassD2Ev(ptr noundef nonnull align 8 dereferenceable(28) %0) #13
  ret void
}